target datalayout = "e-m:e-p270:32:32-p271:32:32-p272:64:64-i64:64-i128:128-f80:128-n8:16:32:64-S128"
target triple = "x86_64-pc-linux-gnu"

%struct.avifColorPrimariesTable = type { i16, ptr, [8 x float] }

; Function Attrs: nounwind uwtable
define hidden void @avifColorPrimariesGetValues(i16 noundef zeroext %0, ptr noundef %1) #0 {
  %3 = alloca i16, align 2
  %4 = alloca ptr, align 8
  %5 = alloca i32, align 4
  store i16 %0, ptr %3, align 2
  store ptr %1, ptr %4, align 8
  store i32 0, ptr %5, align 4
  br label %6

6:                                                ; preds = %27, %2
  %7 = load i32, ptr %5, align 4
  %8 = icmp slt i32 %7, 11
  br i1 %8, label %9, label %30

9:                                                ; preds = %6
  %10 = load i32, ptr %5, align 4
  %11 = sext i32 %10 to i64
  %12 = getelementptr inbounds [11 x %struct.avifColorPrimariesTable], ptr @avifColorPrimariesTables, i64 0, i64 %11
  %13 = getelementptr inbounds nuw %struct.avifColorPrimariesTable, ptr %12, i32 0, i32 0
  %14 = load i16, ptr %13, align 16
  %15 = zext i16 %14 to i32
  %16 = load i16, ptr %3, align 2
  %17 = zext i16 %16 to i32
  %18 = icmp eq i32 %15, %17
  br i1 %18, label %19, label %26

19:                                               ; preds = %9
  %20 = load ptr, ptr %4, align 8
  %21 = load i32, ptr %5, align 4
  %22 = sext i32 %21 to i64
  %23 = getelementptr inbounds [11 x %struct.avifColorPrimariesTable], ptr @avifColorPrimariesTables, i64 0, i64 %22
  %24 = getelementptr inbounds nuw %struct.avifColorPrimariesTable, ptr %23, i32 0, i32 2
  %25 = getelementptr inbounds [8 x float], ptr %24, i64 0, i64 0
  call void @llvm.memcpy.p0.p0.i64(ptr align 4 %20, ptr align 16 %25, i64 32, i1 false)
  br label %32

26:                                               ; preds = %9
  br label %27

27:                                               ; preds = %26
  %28 = load i32, ptr %5, align 4
  %29 = add nsw i32 %28, 1
  store i32 %29, ptr %5, align 4
  br label %6, !llvm.loop !4

30:                                               ; preds = %6
  %31 = load ptr, ptr %4, align 8
  call void @llvm.memcpy.p0.p0.i64(ptr align 4 %31, ptr align 16 getelementptr inbounds nuw (%struct.avifColorPrimariesTable, ptr @avifColorPrimariesTables, i32 0, i32 2), i64 32, i1 false)
  br label %32

32:                                               ; preds = %30, %19
  ret void
}

; Function Attrs: nounwind uwtable
define hidden void @avifColorPrimariesComputeYCoeffs(i16 noundef zeroext %0, ptr noundef %1) #0 {
  %3 = alloca i16, align 2
  %4 = alloca ptr, align 8
  %5 = alloca [8 x float], align 16
  %6 = alloca float, align 4
  %7 = alloca float, align 4
  %8 = alloca float, align 4
  %9 = alloca float, align 4
  %10 = alloca float, align 4
  %11 = alloca float, align 4
  %12 = alloca float, align 4
  %13 = alloca float, align 4
  %14 = alloca float, align 4
  %15 = alloca float, align 4
  %16 = alloca float, align 4
  %17 = alloca float, align 4
  %18 = alloca float, align 4
  %19 = alloca float, align 4
  store i16 %0, ptr %3, align 2
  store ptr %1, ptr %4, align 8
  %20 = load i16, ptr %3, align 2
  %21 = getelementptr inbounds [8 x float], ptr %5, i64 0, i64 0
  call void @avifColorPrimariesGetValues(i16 noundef zeroext %20, ptr noundef %21)
  %22 = getelementptr inbounds [8 x float], ptr %5, i64 0, i64 0
  %23 = load float, ptr %22, align 16
  store float %23, ptr %6, align 4
  %24 = getelementptr inbounds [8 x float], ptr %5, i64 0, i64 1
  %25 = load float, ptr %24, align 4
  store float %25, ptr %7, align 4
  %26 = getelementptr inbounds [8 x float], ptr %5, i64 0, i64 2
  %27 = load float, ptr %26, align 8
  store float %27, ptr %8, align 4
  %28 = getelementptr inbounds [8 x float], ptr %5, i64 0, i64 3
  %29 = load float, ptr %28, align 4
  store float %29, ptr %9, align 4
  %30 = getelementptr inbounds [8 x float], ptr %5, i64 0, i64 4
  %31 = load float, ptr %30, align 16
  store float %31, ptr %10, align 4
  %32 = getelementptr inbounds [8 x float], ptr %5, i64 0, i64 5
  %33 = load float, ptr %32, align 4
  store float %33, ptr %11, align 4
  %34 = getelementptr inbounds [8 x float], ptr %5, i64 0, i64 6
  %35 = load float, ptr %34, align 8
  store float %35, ptr %12, align 4
  %36 = getelementptr inbounds [8 x float], ptr %5, i64 0, i64 7
  %37 = load float, ptr %36, align 4
  store float %37, ptr %13, align 4
  %38 = load float, ptr %6, align 4
  %39 = load float, ptr %7, align 4
  %40 = fadd float %38, %39
  %41 = fsub float 1.000000e+00, %40
  store float %41, ptr %14, align 4
  %42 = load float, ptr %8, align 4
  %43 = load float, ptr %9, align 4
  %44 = fadd float %42, %43
  %45 = fsub float 1.000000e+00, %44
  store float %45, ptr %15, align 4
  %46 = load float, ptr %10, align 4
  %47 = load float, ptr %11, align 4
  %48 = fadd float %46, %47
  %49 = fsub float 1.000000e+00, %48
  store float %49, ptr %16, align 4
  %50 = load float, ptr %12, align 4
  %51 = load float, ptr %13, align 4
  %52 = fadd float %50, %51
  %53 = fsub float 1.000000e+00, %52
  store float %53, ptr %17, align 4
  %54 = load float, ptr %7, align 4
  %55 = load float, ptr %12, align 4
  %56 = load float, ptr %9, align 4
  %57 = load float, ptr %16, align 4
  %58 = load float, ptr %11, align 4
  %59 = load float, ptr %15, align 4
  %60 = fmul float %58, %59
  %61 = fneg float %60
  %62 = call float @llvm.fmuladd.f32(float %56, float %57, float %61)
  %63 = load float, ptr %13, align 4
  %64 = load float, ptr %10, align 4
  %65 = load float, ptr %15, align 4
  %66 = load float, ptr %8, align 4
  %67 = load float, ptr %16, align 4
  %68 = fmul float %66, %67
  %69 = fneg float %68
  %70 = call float @llvm.fmuladd.f32(float %64, float %65, float %69)
  %71 = fmul float %63, %70
  %72 = call float @llvm.fmuladd.f32(float %55, float %62, float %71)
  %73 = load float, ptr %17, align 4
  %74 = load float, ptr %8, align 4
  %75 = load float, ptr %11, align 4
  %76 = load float, ptr %10, align 4
  %77 = load float, ptr %9, align 4
  %78 = fmul float %76, %77
  %79 = fneg float %78
  %80 = call float @llvm.fmuladd.f32(float %74, float %75, float %79)
  %81 = call float @llvm.fmuladd.f32(float %73, float %80, float %72)
  %82 = fmul float %54, %81
  %83 = load float, ptr %13, align 4
  %84 = load float, ptr %6, align 4
  %85 = load float, ptr %9, align 4
  %86 = load float, ptr %16, align 4
  %87 = load float, ptr %11, align 4
  %88 = load float, ptr %15, align 4
  %89 = fmul float %87, %88
  %90 = fneg float %89
  %91 = call float @llvm.fmuladd.f32(float %85, float %86, float %90)
  %92 = load float, ptr %8, align 4
  %93 = load float, ptr %11, align 4
  %94 = load float, ptr %14, align 4
  %95 = load float, ptr %7, align 4
  %96 = load float, ptr %16, align 4
  %97 = fmul float %95, %96
  %98 = fneg float %97
  %99 = call float @llvm.fmuladd.f32(float %93, float %94, float %98)
  %100 = fmul float %92, %99
  %101 = call float @llvm.fmuladd.f32(float %84, float %91, float %100)
  %102 = load float, ptr %10, align 4
  %103 = load float, ptr %7, align 4
  %104 = load float, ptr %15, align 4
  %105 = load float, ptr %9, align 4
  %106 = load float, ptr %14, align 4
  %107 = fmul float %105, %106
  %108 = fneg float %107
  %109 = call float @llvm.fmuladd.f32(float %103, float %104, float %108)
  %110 = call float @llvm.fmuladd.f32(float %102, float %109, float %101)
  %111 = fmul float %83, %110
  %112 = fdiv float %82, %111
  store float %112, ptr %18, align 4
  %113 = load float, ptr %11, align 4
  %114 = load float, ptr %12, align 4
  %115 = load float, ptr %7, align 4
  %116 = load float, ptr %15, align 4
  %117 = load float, ptr %9, align 4
  %118 = load float, ptr %14, align 4
  %119 = fmul float %117, %118
  %120 = fneg float %119
  %121 = call float @llvm.fmuladd.f32(float %115, float %116, float %120)
  %122 = load float, ptr %13, align 4
  %123 = load float, ptr %8, align 4
  %124 = load float, ptr %14, align 4
  %125 = load float, ptr %6, align 4
  %126 = load float, ptr %15, align 4
  %127 = fmul float %125, %126
  %128 = fneg float %127
  %129 = call float @llvm.fmuladd.f32(float %123, float %124, float %128)
  %130 = fmul float %122, %129
  %131 = call float @llvm.fmuladd.f32(float %114, float %121, float %130)
  %132 = load float, ptr %17, align 4
  %133 = load float, ptr %6, align 4
  %134 = load float, ptr %9, align 4
  %135 = load float, ptr %8, align 4
  %136 = load float, ptr %7, align 4
  %137 = fmul float %135, %136
  %138 = fneg float %137
  %139 = call float @llvm.fmuladd.f32(float %133, float %134, float %138)
  %140 = call float @llvm.fmuladd.f32(float %132, float %139, float %131)
  %141 = fmul float %113, %140
  %142 = load float, ptr %13, align 4
  %143 = load float, ptr %6, align 4
  %144 = load float, ptr %9, align 4
  %145 = load float, ptr %16, align 4
  %146 = load float, ptr %11, align 4
  %147 = load float, ptr %15, align 4
  %148 = fmul float %146, %147
  %149 = fneg float %148
  %150 = call float @llvm.fmuladd.f32(float %144, float %145, float %149)
  %151 = load float, ptr %8, align 4
  %152 = load float, ptr %11, align 4
  %153 = load float, ptr %14, align 4
  %154 = load float, ptr %7, align 4
  %155 = load float, ptr %16, align 4
  %156 = fmul float %154, %155
  %157 = fneg float %156
  %158 = call float @llvm.fmuladd.f32(float %152, float %153, float %157)
  %159 = fmul float %151, %158
  %160 = call float @llvm.fmuladd.f32(float %143, float %150, float %159)
  %161 = load float, ptr %10, align 4
  %162 = load float, ptr %7, align 4
  %163 = load float, ptr %15, align 4
  %164 = load float, ptr %9, align 4
  %165 = load float, ptr %14, align 4
  %166 = fmul float %164, %165
  %167 = fneg float %166
  %168 = call float @llvm.fmuladd.f32(float %162, float %163, float %167)
  %169 = call float @llvm.fmuladd.f32(float %161, float %168, float %160)
  %170 = fmul float %142, %169
  %171 = fdiv float %141, %170
  store float %171, ptr %19, align 4
  %172 = load float, ptr %18, align 4
  %173 = load ptr, ptr %4, align 8
  %174 = getelementptr inbounds float, ptr %173, i64 0
  store float %172, ptr %174, align 4
  %175 = load float, ptr %19, align 4
  %176 = load ptr, ptr %4, align 8
  %177 = getelementptr inbounds float, ptr %176, i64 2
  store float %175, ptr %177, align 4
  %178 = load ptr, ptr %4, align 8
  %179 = getelementptr inbounds float, ptr %178, i64 0
  %180 = load float, ptr %179, align 4
  %181 = fsub float 1.000000e+00, %180
  %182 = load ptr, ptr %4, align 8
  %183 = getelementptr inbounds float, ptr %182, i64 2
  %184 = load float, ptr %183, align 4
  %185 = fsub float %181, %184
  %186 = load ptr, ptr %4, align 8
  %187 = getelementptr inbounds float, ptr %186, i64 1
  store float %185, ptr %187, align 4
  ret void
}