; Function Attrs: nofree norecurse nosync nounwind memory(argmem: write) uwtable
define hidden void @avifColorPrimariesComputeYCoeffs(i16 noundef zeroext %0, ptr nocapture noundef writeonly %1) local_unnamed_addr #6 {
  br label %4

3:                                                ; preds = %4
  %indvars.iv.next.i = add nuw nsw i64 %indvars.iv.i, 1
  %exitcond.not.i = icmp eq i64 %indvars.iv.next.i, 11
  br i1 %exitcond.not.i, label %avifColorPrimariesGetValues.exit, label %4, !llvm.loop !4

4:                                                ; preds = %3, %2
  %indvars.iv.i = phi i64 [ 0, %2 ], [ %indvars.iv.next.i, %3 ]
  %5 = getelementptr inbounds [11 x %struct.avifColorPrimariesTable], ptr @avifColorPrimariesTables, i64 0, i64 %indvars.iv.i
  %6 = load i16, ptr %5, align 16
  %7 = icmp eq i16 %6, %0
  br i1 %7, label %8, label %3

8:                                                ; preds = %4
  %9 = getelementptr inbounds nuw i8, ptr %5, i64 16
  %.sroa.0.0.copyload79 = load float, ptr %9, align 16
  %.sroa.3.0..sroa_idx = getelementptr inbounds i8, ptr %5, i64 20
  %.sroa.3.0.copyload80 = load float, ptr %.sroa.3.0..sroa_idx, align 4
  %.sroa.4.0..sroa_idx = getelementptr inbounds i8, ptr %5, i64 24
  %.sroa.4.0.copyload81 = load float, ptr %.sroa.4.0..sroa_idx, align 8
  %.sroa.5.0..sroa_idx = getelementptr inbounds i8, ptr %5, i64 28
  %.sroa.5.0.copyload82 = load float, ptr %.sroa.5.0..sroa_idx, align 4
  %.sroa.6.0..sroa_idx = getelementptr inbounds i8, ptr %5, i64 32
  %.sroa.6.0.copyload83 = load float, ptr %.sroa.6.0..sroa_idx, align 16
  %.sroa.7.0..sroa_idx = getelementptr inbounds i8, ptr %5, i64 36
  %.sroa.7.0.copyload84 = load float, ptr %.sroa.7.0..sroa_idx, align 4
  %.sroa.8.0..sroa_idx = getelementptr inbounds i8, ptr %5, i64 40
  %.sroa.8.0.copyload85 = load float, ptr %.sroa.8.0..sroa_idx, align 8
  %.sroa.9.0..sroa_idx = getelementptr inbounds i8, ptr %5, i64 44
  %.sroa.9.0.copyload86 = load float, ptr %.sroa.9.0..sroa_idx, align 4
  br label %avifColorPrimariesGetValues.exit

avifColorPrimariesGetValues.exit:                 ; preds = %3, %8
  %.sroa.9.0 = phi float [ %.sroa.9.0.copyload86, %8 ], [ 0x3FD50E5600000000, %3 ]
  %.sroa.8.0 = phi float [ %.sroa.8.0.copyload85, %8 ], [ 0x3FD40346E0000000, %3 ]
  %.sroa.7.0 = phi float [ %.sroa.7.0.copyload84, %8 ], [ 0x3FAEB851E0000000, %3 ]
  %.sroa.6.0 = phi float [ %.sroa.6.0.copyload83, %8 ], [ 0x3FC3333340000000, %3 ]
  %.sroa.5.0 = phi float [ %.sroa.5.0.copyload82, %8 ], [ 0x3FE3333340000000, %3 ]
  %.sroa.4.0 = phi float [ %.sroa.4.0.copyload81, %8 ], [ 0x3FD3333340000000, %3 ]
  %.sroa.3.0 = phi float [ %.sroa.3.0.copyload80, %8 ], [ 0x3FD51EB860000000, %3 ]
  %.sroa.0.0 = phi float [ %.sroa.0.0.copyload79, %8 ], [ 0x3FE47AE140000000, %3 ]
  %10 = fadd float %.sroa.3.0, %.sroa.0.0
  %11 = fsub float 1.000000e+00, %10
  %12 = fadd float %.sroa.5.0, %.sroa.4.0
  %13 = fsub float 1.000000e+00, %12
  %14 = fadd float %.sroa.7.0, %.sroa.6.0
  %15 = fsub float 1.000000e+00, %14
  %16 = fadd float %.sroa.9.0, %.sroa.8.0
  %17 = fsub float 1.000000e+00, %16
  %18 = fneg float %13
  %19 = fmul float %.sroa.7.0, %18
  %20 = tail call float @llvm.fmuladd.f32(float %.sroa.5.0, float %15, float %19)
  %21 = fneg float %15
  %22 = fmul float %.sroa.4.0, %21
  %23 = tail call float @llvm.fmuladd.f32(float %.sroa.6.0, float %13, float %22)
  %24 = fmul float %.sroa.9.0, %23
  %25 = tail call float @llvm.fmuladd.f32(float %.sroa.8.0, float %20, float %24)
  %26 = fneg float %.sroa.5.0
  %27 = fmul float %.sroa.6.0, %26
  %28 = tail call float @llvm.fmuladd.f32(float %.sroa.4.0, float %.sroa.7.0, float %27)
  %29 = tail call float @llvm.fmuladd.f32(float %17, float %28, float %25)
  %30 = fmul float %.sroa.3.0, %29
  %31 = fmul float %.sroa.3.0, %21
  %32 = tail call float @llvm.fmuladd.f32(float %.sroa.7.0, float %11, float %31)
  %33 = fmul float %.sroa.4.0, %32
  %34 = tail call float @llvm.fmuladd.f32(float %.sroa.0.0, float %20, float %33)
  %35 = fneg float %11
  %36 = fmul float %.sroa.5.0, %35
  %37 = tail call float @llvm.fmuladd.f32(float %.sroa.3.0, float %13, float %36)
  %38 = tail call float @llvm.fmuladd.f32(float %.sroa.6.0, float %37, float %34)
  %39 = fmul float %.sroa.9.0, %38
  %40 = fdiv float %30, %39
  %41 = fmul float %.sroa.0.0, %18
  %42 = tail call float @llvm.fmuladd.f32(float %.sroa.4.0, float %11, float %41)
  %43 = fmul float %.sroa.9.0, %42
  %44 = tail call float @llvm.fmuladd.f32(float %.sroa.8.0, float %37, float %43)
  %45 = fneg float %.sroa.3.0
  %46 = fmul float %.sroa.4.0, %45
  %47 = tail call float @llvm.fmuladd.f32(float %.sroa.0.0, float %.sroa.5.0, float %46)
  %48 = tail call float @llvm.fmuladd.f32(float %17, float %47, float %44)
  %49 = fmul float %.sroa.7.0, %48
  %50 = fdiv float %49, %39
  store float %40, ptr %1, align 4
  %51 = getelementptr inbounds i8, ptr %1, i64 8
  store float %50, ptr %51, align 4
  %52 = fsub float 1.000000e+00, %40
  %53 = fsub float %52, %50
  %54 = getelementptr inbounds i8, ptr %1, i64 4
  store float %53, ptr %54, align 4
  ret void
}